ccopy_reg
_reconstructor
p0
(cgoogle.oauth2.credentials
Credentials
p1
c__builtin__
object
p2
Ntp3
Rp4
(dp5
S'_token_uri'
p6
S'https://accounts.google.com/o/oauth2/token'
p7
sS'_client_secret'
p8
S'Tl-BUygEx8THB8sHtkK3gtgn'
p9
sS'_id_token'
p10
NsS'token'
p11
Vya29.GlvdBrePPA_11j6tGnJjccX8zjSTI_xx61zGCAWaZCX6CsDAaDYfrxri0F1St-2ih094MW4-nHiQ7n6I3f-5WiWoi3L3uSOl2EVMGoQktba-iAqrEr_XDyuW70ac
p12
sS'_refresh_token'
p13
V1/QdOpj62FdCfuCx2mTJU17R0dI5QGZ6j7Ggxyb2sUbdo
p14
sS'_scopes'
p15
(lp16
S'https://www.googleapis.com/auth/calendar.readonly'
p17
asS'_client_id'
p18
S'421968015868-68rkco8i9dp3u7f0b7p1nejapnssf5o3.apps.googleusercontent.com'
p19
sS'expiry'
p20
cdatetime
datetime
p21
(S'\x07\xe3\x03\x1f\x13#7\rH\x81'
p22
tp23
Rp24
sb.