ccopy_reg
_reconstructor
p0
(cgoogle.oauth2.credentials
Credentials
p1
c__builtin__
object
p2
Ntp3
Rp4
(dp5
S'_token_uri'
p6
S'https://accounts.google.com/o/oauth2/token'
p7
sS'_client_secret'
p8
S'2AazhFQju-1X8mjRqunuluv7'
p9
sS'_id_token'
p10
NsS'token'
p11
Vya29.GlvdBvEnYRQFLkQpOdRRxYXGt7PdAnywe69yvN7uazlsLdZHjjgV_CRa5wT9E2N9yFJ5ngtcdOWDdK6qmxixFPavKPQAuMUfjBgBstMmqmxNr6QVRHs2Yd3unUHi
p12
sS'_refresh_token'
p13
V1/9FkYX67kpYXLmaNKmq0n2n6ff-qY9X8UPVoYwy6oCq4
p14
sS'_scopes'
p15
(lp16
S'https://www.googleapis.com/auth/calendar.readonly'
p17
asS'_client_id'
p18
S'671143266543-dnper0a5b777rkid7gh655od6130tj60.apps.googleusercontent.com'
p19
sS'expiry'
p20
cdatetime
datetime
p21
(S"\x07\xe3\x03\x1f\x13\x1b \x08'|"
p22
tp23
Rp24
sb.