ccopy_reg
_reconstructor
p0
(cgoogle.oauth2.credentials
Credentials
p1
c__builtin__
object
p2
Ntp3
Rp4
(dp5
S'_token_uri'
p6
S'https://accounts.google.com/o/oauth2/token'
p7
sS'_client_secret'
p8
S'2AazhFQju-1X8mjRqunuluv7'
p9
sS'_id_token'
p10
NsS'token'
p11
Va
p12
sS'_refresh_token'
p13
V1/otGm554ewAWY3busiR8E9KOBc_55OvXbwBacPkL0E_c
p14
sS'_scopes'
p15
(lp16
S'https://www.googleapis.com/auth/calendar.readonly'
p17
asS'_client_id'
p18
S'671143266543-dnper0a5b777rkid7gh655od6130tj60.apps.googleusercontent.com'
p19
sS'expiry'
p20
cdatetime
datetime
p21
(S'\x07\xe3\x03\x1b\r\x1e\x17\x0c)F'
p22
tp23
Rp24
sb.
