ccopy_reg
_reconstructor
p0
(cgoogle.oauth2.credentials
Credentials
p1
c__builtin__
object
p2
Ntp3
Rp4
(dp5
S'_token_uri'
p6
S'https://accounts.google.com/o/oauth2/token'
p7
sS'_client_secret'
p8
S'2AazhFQju-1X8mjRqunuluv7'
p9
sS'_id_token'
p10
NsS'token'
p11
Vya29.GlvdBpUNdqIbVuvpcHa2rvgqGFOg4yrva5yhIpbTQXcBGiz3_BcH2ebYGBcEVDEvis7QkQ2duQEdB13c6x1hnvuJ2IY56P-W6eSmhrb46cUQeW2yqBW6sacMMpSr
p12
sS'_refresh_token'
p13
V1/UD6GdA66KUWJvCoodsCGgzS2YlpfEM-HwrCCbnjaILU
p14
sS'_scopes'
p15
(lp16
S'https://www.googleapis.com/auth/calendar.readonly'
p17
asS'_client_id'
p18
S'671143266543-dnper0a5b777rkid7gh655od6130tj60.apps.googleusercontent.com'
p19
sS'expiry'
p20
cdatetime
datetime
p21
(S'\x07\xe3\x03\x1f\x13\x12$\x00\xb7\xe4'
p22
tp23
Rp24
sb.